; Function Attrs: mustprogress nofree norecurse nosync nounwind willreturn memory(read, argmem: readwrite, inaccessiblemem: none) uwtable
define dso_local noundef zeroext i1 @_ZNK4base9ListValue13GetDictionaryEmPPKNS_15DictionaryValueE(ptr nocapture noundef nonnull readonly align 8 dereferenceable(40) %this, i64 noundef %index, ptr noundef writeonly %out_value) local_unnamed_addr #14 align 2 {
entry:
  %list_.i = getelementptr inbounds i8, ptr %this, i64 16
  %_M_finish.i.i = getelementptr inbounds i8, ptr %this, i64 24
  %0 = load ptr, ptr %_M_finish.i.i, align 8
  %1 = load ptr, ptr %list_.i, align 8
  %sub.ptr.lhs.cast.i.i = ptrtoint ptr %0 to i64
  %sub.ptr.rhs.cast.i.i = ptrtoint ptr %1 to i64
  %sub.ptr.sub.i.i = sub i64 %sub.ptr.lhs.cast.i.i, %sub.ptr.rhs.cast.i.i
  %sub.ptr.div.i.i = ashr exact i64 %sub.ptr.sub.i.i, 3
  %cmp.not.i = icmp ugt i64 %sub.ptr.div.i.i, %index
  br i1 %cmp.not.i, label %lor.lhs.false, label %return

lor.lhs.false:                                    ; preds = %entry
  %add.ptr.i.i = getelementptr inbounds %"class.std::unique_ptr", ptr %1, i64 %index
  %2 = load ptr, ptr %add.ptr.i.i, align 8
  %type_.i = getelementptr inbounds i8, ptr %2, i64 8
  %3 = load i32, ptr %type_.i, align 8
  %cmp.i = icmp eq i32 %3, 6
  br i1 %cmp.i, label %if.end, label %return

if.end:                                           ; preds = %lor.lhs.false
  %tobool3.not = icmp eq ptr %out_value, null
  br i1 %tobool3.not, label %return, label %if.then4

if.then4:                                         ; preds = %if.end
  store ptr %2, ptr %out_value, align 8
  br label %return

return:                                           ; preds = %entry, %if.end, %if.then4, %lor.lhs.false
  %retval.0 = phi i1 [ false, %lor.lhs.false ], [ true, %if.then4 ], [ true, %if.end ], [ false, %entry ]
  ret i1 %retval.0
}